target datalayout = "e-m:e-p270:32:32-p271:32:32-p272:64:64-i64:64-i128:128-f80:128-n8:16:32:64-S128"
target triple = "x86_64-pc-linux-gnu"

%struct._typeobject = type { %struct.PyVarObject, ptr, i64, i64, ptr, i64, ptr, ptr, ptr, ptr, ptr, ptr, ptr, ptr, ptr, ptr, ptr, ptr, ptr, i64, ptr, ptr, ptr, ptr, i64, ptr, ptr, ptr, ptr, ptr, ptr, ptr, ptr, ptr, i64, ptr, ptr, ptr, ptr, ptr, ptr, ptr, ptr, ptr, ptr, ptr, i32, ptr, ptr, i8, i16 }
%struct.PyVarObject = type { %struct._object, i64 }
%struct._object = type { %union.anon, ptr }
%union.anon = type { i64 }
%struct.PyType_Spec = type { ptr, i32, i32, i32, ptr }
%struct.PyMemberDef = type { ptr, i32, i64, i32, ptr }

@PyType_Type = external global %struct._typeobject, align 8
@.str.11 = private unnamed_addr constant [22 x i8] c"make_vectorcall_class\00", align 1
@.str.27 = private unnamed_addr constant [11 x i8] c"argument 1\00", align 1
@PyBaseObject_Type = external global %struct._typeobject, align 8
@.str.28 = private unnamed_addr constant [26 x i8] c"_testcapi.VectorcallClass\00", align 1

; Function Attrs: inlinehint nounwind uwtable
define internal ptr @_Py_TYPE(ptr noundef %0) #3 {
  %2 = alloca ptr, align 8
  store ptr %0, ptr %2, align 8, !tbaa !3
  %3 = load ptr, ptr %2, align 8, !tbaa !3
  %4 = getelementptr inbounds nuw %struct._object, ptr %3, i32 0, i32 1
  %5 = load ptr, ptr %4, align 8, !tbaa !27
  ret ptr %5
}

; Function Attrs: inlinehint nounwind uwtable
define internal i32 @Py_IS_TYPE(ptr noundef %0, ptr noundef %1) #3 {
  %3 = alloca ptr, align 8
  %4 = alloca ptr, align 8
  store ptr %0, ptr %3, align 8, !tbaa !3
  store ptr %1, ptr %4, align 8, !tbaa !23
  %5 = load ptr, ptr %3, align 8, !tbaa !3
  %6 = call ptr @_Py_TYPE(ptr noundef %5)
  %7 = load ptr, ptr %4, align 8, !tbaa !23
  %8 = icmp eq ptr %6, %7
  %9 = zext i1 %8 to i32
  ret i32 %9
}

; Function Attrs: nounwind uwtable
define internal ptr @_testcapi_make_vectorcall_class_impl(ptr noundef %0, ptr noundef %1) #0 {
  %3 = alloca ptr, align 8
  %4 = alloca ptr, align 8
  %5 = alloca %struct.PyType_Spec, align 8
  store ptr %0, ptr %3, align 8, !tbaa !3
  store ptr %1, ptr %4, align 8, !tbaa !23
  %6 = load ptr, ptr %4, align 8, !tbaa !23
  %7 = icmp ne ptr %6, null
  br i1 %7, label %9, label %8

8:                                                ; preds = %2
  store ptr @PyBaseObject_Type, ptr %4, align 8, !tbaa !23
  br label %9

9:                                                ; preds = %8, %2
  %10 = load ptr, ptr %4, align 8, !tbaa !23
  %11 = getelementptr inbounds nuw %struct._typeobject, ptr %10, i32 0, i32 2
  %12 = load i64, ptr %11, align 8, !tbaa !35
  store i64 %12, ptr getelementptr inbounds nuw (%struct.PyMemberDef, ptr @VectorCallClass_members, i32 0, i32 2), align 16, !tbaa !36
  call void @llvm.lifetime.start.p0(i64 32, ptr %5) #7
  %13 = getelementptr inbounds nuw %struct.PyType_Spec, ptr %5, i32 0, i32 0
  store ptr @.str.28, ptr %13, align 8, !tbaa !38
  %14 = getelementptr inbounds nuw %struct.PyType_Spec, ptr %5, i32 0, i32 1
  %15 = load ptr, ptr %4, align 8, !tbaa !23
  %16 = getelementptr inbounds nuw %struct._typeobject, ptr %15, i32 0, i32 2
  %17 = load i64, ptr %16, align 8, !tbaa !35
  %18 = add i64 %17, 8
  %19 = trunc i64 %18 to i32
  store i32 %19, ptr %14, align 8, !tbaa !40
  %20 = getelementptr inbounds nuw %struct.PyType_Spec, ptr %5, i32 0, i32 2
  store i32 0, ptr %20, align 4, !tbaa !41
  %21 = getelementptr inbounds nuw %struct.PyType_Spec, ptr %5, i32 0, i32 3
  store i32 3072, ptr %21, align 8, !tbaa !42
  %22 = getelementptr i8, ptr %5, i64 20
  call void @llvm.memset.p0.i64(ptr align 4 %22, i8 0, i64 4, i1 false)
  %23 = getelementptr inbounds nuw %struct.PyType_Spec, ptr %5, i32 0, i32 4
  store ptr @VectorCallClass_slots, ptr %23, align 8, !tbaa !43
  %24 = load ptr, ptr %4, align 8, !tbaa !23
  %25 = call ptr @PyType_FromSpecWithBases(ptr noundef %5, ptr noundef %24)
  call void @llvm.lifetime.end.p0(i64 32, ptr %5) #7
  ret ptr %25
}

; Function Attrs: inlinehint nounwind uwtable
define internal i32 @PyObject_TypeCheck(ptr noundef %0, ptr noundef %1) #3 {
  %3 = alloca ptr, align 8
  %4 = alloca ptr, align 8
  store ptr %0, ptr %3, align 8, !tbaa !3
  store ptr %1, ptr %4, align 8, !tbaa !23
  %5 = load ptr, ptr %3, align 8, !tbaa !3
  %6 = load ptr, ptr %4, align 8, !tbaa !23
  %7 = call i32 @Py_IS_TYPE(ptr noundef %5, ptr noundef %6)
  %8 = icmp ne i32 %7, 0
  br i1 %8, label %15, label %9

9:                                                ; preds = %2
  %10 = load ptr, ptr %3, align 8, !tbaa !3
  %11 = call ptr @_Py_TYPE(ptr noundef %10)
  %12 = load ptr, ptr %4, align 8, !tbaa !23
  %13 = call i32 @PyType_IsSubtype(ptr noundef %11, ptr noundef %12)
  %14 = icmp ne i32 %13, 0
  br label %15

15:                                               ; preds = %9, %2
  %16 = phi i1 [ true, %2 ], [ %14, %9 ]
  %17 = zext i1 %16 to i32
  ret i32 %17
}

; Function Attrs: nounwind uwtable
define internal ptr @_testcapi_make_vectorcall_class(ptr noundef %0, ptr noundef %1, i64 noundef %2) #0 {
  %4 = alloca ptr, align 8
  %5 = alloca ptr, align 8
  %6 = alloca i64, align 8
  %7 = alloca ptr, align 8
  %8 = alloca ptr, align 8
  store ptr %0, ptr %4, align 8, !tbaa !3
  store ptr %1, ptr %5, align 8, !tbaa !8
  store i64 %2, ptr %6, align 8, !tbaa !10
  call void @llvm.lifetime.start.p0(i64 8, ptr %7) #7
  store ptr null, ptr %7, align 8, !tbaa !3
  call void @llvm.lifetime.start.p0(i64 8, ptr %8) #7
  store ptr null, ptr %8, align 8, !tbaa !23
  %9 = load i64, ptr %6, align 8, !tbaa !10
  %10 = icmp sle i64 0, %9
  br i1 %10, label %11, label %14

11:                                               ; preds = %3
  %12 = load i64, ptr %6, align 8, !tbaa !10
  %13 = icmp sle i64 %12, 1
  br i1 %13, label %19, label %14

14:                                               ; preds = %11, %3
  %15 = load i64, ptr %6, align 8, !tbaa !10
  %16 = call i32 @_PyArg_CheckPositional(ptr noundef @.str.11, i64 noundef %15, i64 noundef 0, i64 noundef 1)
  %17 = icmp ne i32 %16, 0
  br i1 %17, label %19, label %18

18:                                               ; preds = %14
  br label %42

19:                                               ; preds = %14, %11
  %20 = load i64, ptr %6, align 8, !tbaa !10
  %21 = icmp slt i64 %20, 1
  br i1 %21, label %22, label %23

22:                                               ; preds = %19
  br label %38

23:                                               ; preds = %19
  %24 = load ptr, ptr %5, align 8, !tbaa !8
  %25 = getelementptr ptr, ptr %24, i64 0
  %26 = load ptr, ptr %25, align 8, !tbaa !3
  %27 = call i32 @PyObject_TypeCheck(ptr noundef %26, ptr noundef @PyType_Type)
  %28 = icmp ne i32 %27, 0
  br i1 %28, label %34, label %29

29:                                               ; preds = %23
  %30 = load ptr, ptr getelementptr inbounds nuw (%struct._typeobject, ptr @PyType_Type, i32 0, i32 1), align 8, !tbaa !12
  %31 = load ptr, ptr %5, align 8, !tbaa !8
  %32 = getelementptr ptr, ptr %31, i64 0
  %33 = load ptr, ptr %32, align 8, !tbaa !3
  call void @_PyArg_BadArgument(ptr noundef @.str.11, ptr noundef @.str.27, ptr noundef %30, ptr noundef %33)
  br label %42

34:                                               ; preds = %23
  %35 = load ptr, ptr %5, align 8, !tbaa !8
  %36 = getelementptr ptr, ptr %35, i64 0
  %37 = load ptr, ptr %36, align 8, !tbaa !3
  store ptr %37, ptr %8, align 8, !tbaa !23
  br label %38

38:                                               ; preds = %34, %22
  %39 = load ptr, ptr %4, align 8, !tbaa !3
  %40 = load ptr, ptr %8, align 8, !tbaa !23
  %41 = call ptr @_testcapi_make_vectorcall_class_impl(ptr noundef %39, ptr noundef %40)
  store ptr %41, ptr %7, align 8, !tbaa !3
  br label %42

42:                                               ; preds = %38, %29, %18
  %43 = load ptr, ptr %7, align 8, !tbaa !3
  call void @llvm.lifetime.end.p0(i64 8, ptr %8) #7
  call void @llvm.lifetime.end.p0(i64 8, ptr %7) #7
  ret ptr %43
}