; Function Attrs: nounwind uwtable
define internal ptr @_testcapi_make_vectorcall_class(ptr readnone captures(none) %0, ptr noundef readonly captures(none) %1, i64 noundef %2) #0 {
  %4 = alloca %struct.PyType_Spec, align 8
  %or.cond = icmp ult i64 %2, 2
  br i1 %or.cond, label %7, label %5

5:                                                ; preds = %3
  %6 = tail call i32 @_PyArg_CheckPositional(ptr noundef nonnull @.str.11, i64 noundef %2, i64 noundef 0, i64 noundef 1) #5
  %.not = icmp eq i32 %6, 0
  br i1 %.not, label %25, label %7

7:                                                ; preds = %3, %5
  %8 = icmp slt i64 %2, 1
  br i1 %8, label %PyObject_TypeCheck.exit.thread, label %9

9:                                                ; preds = %7
  %10 = load ptr, ptr %1, align 8, !tbaa !20
  %11 = getelementptr i8, ptr %10, i64 8
  %.val = load ptr, ptr %11, align 8, !tbaa !3
  %.not.i = icmp eq ptr %.val, @PyType_Type
  br i1 %.not.i, label %PyObject_TypeCheck.exit.thread, label %PyObject_TypeCheck.exit

PyObject_TypeCheck.exit:                          ; preds = %9
  %12 = tail call i32 @PyType_IsSubtype(ptr noundef %.val, ptr noundef nonnull @PyType_Type) #5
  %.not14 = icmp eq i32 %12, 0
  %.pre = load ptr, ptr %1, align 8, !tbaa !20
  br i1 %.not14, label %13, label %PyObject_TypeCheck.exit.thread

13:                                               ; preds = %PyObject_TypeCheck.exit
  %14 = load ptr, ptr getelementptr inbounds nuw (i8, ptr @PyType_Type, i64 24), align 8, !tbaa !9
  tail call void @_PyArg_BadArgument(ptr noundef nonnull @.str.11, ptr noundef nonnull @.str.27, ptr noundef %14, ptr noundef %.pre) #5
  br label %25

PyObject_TypeCheck.exit.thread:                   ; preds = %PyObject_TypeCheck.exit, %9, %7
  %.0 = phi ptr [ null, %7 ], [ %10, %9 ], [ %.pre, %PyObject_TypeCheck.exit ]
  %.not.i12 = icmp eq ptr %.0, null
  %spec.store.select.i = select i1 %.not.i12, ptr @PyBaseObject_Type, ptr %.0
  %15 = getelementptr inbounds nuw i8, ptr %spec.store.select.i, i64 32
  %16 = load i64, ptr %15, align 8, !tbaa !26
  store i64 %16, ptr getelementptr inbounds nuw (i8, ptr @VectorCallClass_members, i64 16), align 16, !tbaa !27
  call void @llvm.lifetime.start.p0(i64 32, ptr nonnull %4) #5
  store ptr @.str.28, ptr %4, align 8, !tbaa !29
  %17 = getelementptr inbounds nuw i8, ptr %4, i64 8
  %18 = trunc i64 %16 to i32
  %19 = add i32 %18, 8
  store i32 %19, ptr %17, align 8, !tbaa !31
  %20 = getelementptr inbounds nuw i8, ptr %4, i64 12
  store i32 0, ptr %20, align 4, !tbaa !32
  %21 = getelementptr inbounds nuw i8, ptr %4, i64 16
  store i32 3072, ptr %21, align 8, !tbaa !33
  %22 = getelementptr inbounds nuw i8, ptr %4, i64 20
  store i32 0, ptr %22, align 4
  %23 = getelementptr inbounds nuw i8, ptr %4, i64 24
  store ptr @VectorCallClass_slots, ptr %23, align 8, !tbaa !34
  %24 = call ptr @PyType_FromSpecWithBases(ptr noundef nonnull %4, ptr noundef nonnull %spec.store.select.i) #5
  call void @llvm.lifetime.end.p0(i64 32, ptr nonnull %4) #5
  br label %25

25:                                               ; preds = %5, %PyObject_TypeCheck.exit.thread, %13
  %.010 = phi ptr [ %24, %PyObject_TypeCheck.exit.thread ], [ null, %13 ], [ null, %5 ]
  ret ptr %.010
}